; Function Attrs: mustprogress nofree norecurse nosync nounwind willreturn memory(read, inaccessiblemem: none) uwtable
define { ptr, i32 } @_ZNK10OpenSubdiv6v3_6_03Far10PatchTable16GetPatchVerticesEii(ptr nocapture noundef nonnull readonly align 8 dereferenceable(273) %0, i32 noundef %1, i32 noundef %2) local_unnamed_addr #6 align 2 {
  %4 = getelementptr inbounds nuw i8, ptr %0, i64 8
  %5 = sext i32 %1 to i64
  %6 = load ptr, ptr %4, align 8
  %7 = getelementptr inbounds %"struct.OpenSubdiv::v3_6_0::Far::PatchTable::PatchArray", ptr %6, i64 %5
  %8 = load i32, ptr %7, align 4
  %switch.tableidx = add i32 %8, -1
  %9 = icmp ult i32 %switch.tableidx, 10
  br i1 %9, label %switch.lookup, label %_ZN10OpenSubdiv6v3_6_03Far12getPatchSizeENS1_15PatchDescriptorE.exit

switch.lookup:                                    ; preds = %3
  %10 = zext nneg i32 %switch.tableidx to i64
  %switch.gep = getelementptr inbounds [10 x i32], ptr @switch.table._ZNK10OpenSubdiv6v3_6_03Far10PatchTable18GetPatchFVarValuesEiii.5, i64 0, i64 %10
  %switch.load = load i32, ptr %switch.gep, align 4
  br label %_ZN10OpenSubdiv6v3_6_03Far12getPatchSizeENS1_15PatchDescriptorE.exit

_ZN10OpenSubdiv6v3_6_03Far12getPatchSizeENS1_15PatchDescriptorE.exit: ; preds = %3, %switch.lookup
  %.0.i.i.i = phi i32 [ %switch.load, %switch.lookup ], [ -1, %3 ]
  %11 = getelementptr inbounds nuw i8, ptr %0, i64 32
  %12 = getelementptr inbounds nuw i8, ptr %7, i64 8
  %13 = load i32, ptr %12, align 4
  %14 = mul nsw i32 %.0.i.i.i, %2
  %15 = add nsw i32 %13, %14
  %16 = sext i32 %15 to i64
  %17 = load ptr, ptr %11, align 8
  %18 = getelementptr inbounds i32, ptr %17, i64 %16
  %.fca.0.insert = insertvalue { ptr, i32 } poison, ptr %18, 0
  %.fca.1.insert = insertvalue { ptr, i32 } %.fca.0.insert, i32 %.0.i.i.i, 1
  ret { ptr, i32 } %.fca.1.insert
}